target datalayout = "e-m:e-p270:32:32-p271:32:32-p272:64:64-i64:64-i128:128-f80:128-n8:16:32:64-S128"
target triple = "x86_64-pc-linux-gnu"

%"class.std::__cxx11::basic_string" = type { %"struct.std::__cxx11::basic_string<char>::_Alloc_hider", i64, %union.anon }
%"struct.std::__cxx11::basic_string<char>::_Alloc_hider" = type { ptr }
%union.anon = type { i64, [8 x i8] }
%"class.open_spiel::SpanTensor" = type { %"class.open_spiel::SpanTensorInfo", %"class.absl::debian2::Span" }
%"class.open_spiel::SpanTensorInfo" = type { %"class.std::__cxx11::basic_string", %"class.absl::debian2::InlinedVector" }
%"class.absl::debian2::InlinedVector" = type { %"class.absl::debian2::inlined_vector_internal::Storage" }
%"class.absl::debian2::inlined_vector_internal::Storage" = type { %"class.absl::debian2::container_internal::CompressedTuple.50", %"union.absl::debian2::inlined_vector_internal::Storage<int, 4, std::allocator<int>>::Data" }
%"class.absl::debian2::container_internal::CompressedTuple.50" = type { %"struct.absl::debian2::container_internal::internal_compressed_tuple::CompressedTupleImpl.51" }
%"struct.absl::debian2::container_internal::internal_compressed_tuple::CompressedTupleImpl.51" = type { %"struct.absl::debian2::container_internal::internal_compressed_tuple::Storage.56" }
%"struct.absl::debian2::container_internal::internal_compressed_tuple::Storage.56" = type { i64 }
%"union.absl::debian2::inlined_vector_internal::Storage<int, 4, std::allocator<int>>::Data" = type { %"struct.absl::debian2::inlined_vector_internal::Storage<int, 4, std::allocator<int>>::Allocated" }
%"struct.absl::debian2::inlined_vector_internal::Storage<int, 4, std::allocator<int>>::Allocated" = type { ptr, i64 }
%"class.absl::debian2::Span" = type { ptr, i64 }
%class.anon = type { ptr, ptr }
%class.anon.66 = type { i8 }

@.str.6 = private unnamed_addr constant [131 x i8] c"generated/home/dtcxzyw/WorkSpace/Projects/compilers/llvm-opt-benchmark/bench/openspiel/open_spiel/open_spiel/games/rbc/rbc_test.cc\00", align 1
@.str.7 = private unnamed_addr constant [2 x i8] c":\00", align 1
@.str.8 = private unnamed_addr constant [2 x i8] c" \00", align 1
@.str.11 = private unnamed_addr constant [4 x i8] c" = \00", align 1
@.str.55 = private unnamed_addr constant [36 x i8] c"illegal_move_span.at(0) == !illegal\00", align 1
@.str.56 = private unnamed_addr constant [25 x i8] c"\0Aillegal_move_span.at(0)\00", align 1
@.str.57 = private unnamed_addr constant [14 x i8] c", !illegal = \00", align 1
@.str.58 = private unnamed_addr constant [35 x i8] c"illegal_move_span.at(1) == illegal\00", align 1
@.str.59 = private unnamed_addr constant [25 x i8] c"\0Aillegal_move_span.at(1)\00", align 1
@.str.60 = private unnamed_addr constant [13 x i8] c", illegal = \00", align 1

; Function Attrs: noreturn nounwind uwtable
define linkonce_odr hidden void @__clang_call_terminate(ptr noundef %0) #9 comdat {
  %2 = call ptr @__cxa_begin_catch(ptr %0) #3
  call void @_ZSt9terminatev() #16
  unreachable
}

; Function Attrs: mustprogress nounwind uwtable
define linkonce_odr dso_local noundef ptr @_ZNK4absl7debian24SpanIfE4dataEv(ptr noundef nonnull align 8 dereferenceable(16) %0) #5 comdat align 2 {
  %2 = alloca ptr, align 8
  store ptr %0, ptr %2, align 8
  %3 = load ptr, ptr %2, align 8
  %4 = getelementptr inbounds nuw %"class.absl::debian2::Span", ptr %3, i32 0, i32 0
  %5 = load ptr, ptr %4, align 8
  ret ptr %5
}

; Function Attrs: mustprogress nounwind uwtable
define linkonce_odr dso_local void @_ZZNK4absl7debian24SpanIfEixEmENKUlvE_clEv(ptr noundef nonnull align 1 dereferenceable(1) %0) #5 comdat align 2 {
  %2 = alloca ptr, align 8
  store ptr %0, ptr %2, align 8
  br label %3

3:                                                ; preds = %1
  call void @llvm.trap()
  unreachable

4:                                                ; No predecessors!
  ret void
}

; Function Attrs: mustprogress nounwind uwtable
define linkonce_odr dso_local noundef i64 @_ZNK4absl7debian24SpanIfE4sizeEv(ptr noundef nonnull align 8 dereferenceable(16) %0) #5 comdat align 2 {
  %2 = alloca ptr, align 8
  store ptr %0, ptr %2, align 8
  %3 = load ptr, ptr %2, align 8
  %4 = getelementptr inbounds nuw %"class.absl::debian2::Span", ptr %3, i32 0, i32 1
  %5 = load i64, ptr %4, align 8
  ret i64 %5
}

; Function Attrs: mustprogress nounwind uwtable
define linkonce_odr dso_local noundef nonnull align 4 dereferenceable(4) ptr @_ZNK4absl7debian24SpanIfEixEm(ptr noundef nonnull align 8 dereferenceable(16) %0, i64 noundef %1) #5 comdat align 2 personality ptr @__gxx_personality_v0 {
  %3 = alloca ptr, align 8
  %4 = alloca i64, align 8
  %5 = alloca %class.anon.66, align 1
  store ptr %0, ptr %3, align 8
  store i64 %1, ptr %4, align 8
  %6 = load ptr, ptr %3, align 8
  %7 = load i64, ptr %4, align 8
  %8 = call noundef i64 @_ZNK4absl7debian24SpanIfE4sizeEv(ptr noundef nonnull align 8 dereferenceable(16) %6) #3
  %9 = icmp ult i64 %7, %8
  br i1 %9, label %10, label %11

10:                                               ; preds = %2
  br label %13

11:                                               ; preds = %2
  invoke void @_ZZNK4absl7debian24SpanIfEixEmENKUlvE_clEv(ptr noundef nonnull align 1 dereferenceable(1) %5)
          to label %12 unwind label %17

12:                                               ; preds = %11
  br label %13

13:                                               ; preds = %12, %10
  %14 = call noundef ptr @_ZNK4absl7debian24SpanIfE4dataEv(ptr noundef nonnull align 8 dereferenceable(16) %6) #3
  %15 = load i64, ptr %4, align 8
  %16 = getelementptr inbounds float, ptr %14, i64 %15
  ret ptr %16

17:                                               ; preds = %11
  %18 = landingpad { ptr, i32 }
          catch ptr null
  %19 = extractvalue { ptr, i32 } %18, 0
  call void @__clang_call_terminate(ptr %19) #16
  unreachable
}

; Function Attrs: mustprogress nounwind uwtable
define linkonce_odr dso_local noundef nonnull align 4 dereferenceable(4) ptr @_ZNK10open_spiel10SpanTensor2atEi(ptr noundef nonnull align 8 dereferenceable(72) %0, i32 noundef %1) #5 comdat align 2 {
  %3 = alloca ptr, align 8
  %4 = alloca i32, align 4
  store ptr %0, ptr %3, align 8
  store i32 %1, ptr %4, align 4
  %5 = load ptr, ptr %3, align 8
  %6 = getelementptr inbounds nuw %"class.open_spiel::SpanTensor", ptr %5, i32 0, i32 1
  %7 = load i32, ptr %4, align 4
  %8 = sext i32 %7 to i64
  %9 = call noundef nonnull align 4 dereferenceable(4) ptr @_ZNK4absl7debian24SpanIfEixEm(ptr noundef nonnull align 8 dereferenceable(16) %6, i64 noundef %8) #3
  ret ptr %9
}

; Function Attrs: mustprogress uwtable
define internal void @"_ZZN10open_spiel3rbc12_GLOBAL__N_120TestIllegalMovesFlagEvENK3$_0clERKNS_5StateEb"(ptr noundef nonnull align 8 dereferenceable(16) %0, ptr noundef nonnull align 8 dereferenceable(60) %1, i1 noundef zeroext %2) #4 align 2 personality ptr @__gxx_personality_v0 {
  %4 = alloca ptr, align 8
  %5 = alloca ptr, align 8
  %6 = alloca i8, align 1
  %7 = alloca float, align 4
  %8 = alloca i8, align 1
  %9 = alloca %"class.std::__cxx11::basic_string", align 8
  %10 = alloca i32, align 4
  %11 = alloca ptr, align 8
  %12 = alloca i32, align 4
  %13 = alloca float, align 4
  %14 = alloca i8, align 1
  %15 = alloca %"class.std::__cxx11::basic_string", align 8
  %16 = alloca i32, align 4
  store ptr %0, ptr %4, align 8
  store ptr %1, ptr %5, align 8
  %17 = zext i1 %2 to i8
  store i8 %17, ptr %6, align 1
  %18 = load ptr, ptr %4, align 8
  %19 = getelementptr inbounds nuw %class.anon, ptr %18, i32 0, i32 0
  %20 = load ptr, ptr %19, align 8
  %21 = load ptr, ptr %5, align 8
  call void @_ZN10open_spiel11Observation7SetFromERKNS_5StateEi(ptr noundef nonnull align 8 dereferenceable(64) %20, ptr noundef nonnull align 8 dereferenceable(60) %21, i32 noundef 0)
  br label %22

22:                                               ; preds = %3
  %23 = getelementptr inbounds nuw %class.anon, ptr %18, i32 0, i32 1
  %24 = load ptr, ptr %23, align 8
  %25 = call noundef nonnull align 4 dereferenceable(4) ptr @_ZNK10open_spiel10SpanTensor2atEi(ptr noundef nonnull align 8 dereferenceable(72) %24, i32 noundef 0)
  %26 = load float, ptr %25, align 4
  store float %26, ptr %7, align 4
  %27 = load i8, ptr %6, align 1
  %28 = trunc i8 %27 to i1
  %29 = xor i1 %28, true
  %30 = zext i1 %29 to i8
  store i8 %30, ptr %8, align 1
  %31 = load float, ptr %7, align 4
  %32 = load i8, ptr %8, align 1
  %33 = trunc i8 %32 to i1
  %34 = zext i1 %33 to i32
  %35 = sitofp i32 %34 to float
  %36 = fcmp oeq float %31, %35
  br i1 %36, label %43, label %37

37:                                               ; preds = %22
  store i32 84, ptr %10, align 4
  call void @_ZN10open_spiel8internal11SpielStrCatIJRA131_KcRA2_S2_iS6_RA36_S2_RA25_S2_RA4_S2_RfRA14_S2_RbEEENSt7__cxx1112basic_stringIcSt11char_traitsIcESaIcEEEDpOT_(ptr dead_on_unwind writable sret(%"class.std::__cxx11::basic_string") align 8 %9, ptr noundef nonnull align 1 dereferenceable(131) @.str.6, ptr noundef nonnull align 1 dereferenceable(2) @.str.7, ptr noundef nonnull align 4 dereferenceable(4) %10, ptr noundef nonnull align 1 dereferenceable(2) @.str.8, ptr noundef nonnull align 1 dereferenceable(36) @.str.55, ptr noundef nonnull align 1 dereferenceable(25) @.str.56, ptr noundef nonnull align 1 dereferenceable(4) @.str.11, ptr noundef nonnull align 4 dereferenceable(4) %7, ptr noundef nonnull align 1 dereferenceable(14) @.str.57, ptr noundef nonnull align 1 dereferenceable(1) %8)
  invoke void @_ZN10open_spiel15SpielFatalErrorERKNSt7__cxx1112basic_stringIcSt11char_traitsIcESaIcEEE(ptr noundef nonnull align 8 dereferenceable(32) %9) #15
          to label %38 unwind label %39

38:                                               ; preds = %37
  unreachable

39:                                               ; preds = %37
  %40 = landingpad { ptr, i32 }
          cleanup
  %41 = extractvalue { ptr, i32 } %40, 0
  store ptr %41, ptr %11, align 8
  %42 = extractvalue { ptr, i32 } %40, 1
  store i32 %42, ptr %12, align 4
  call void @_ZNSt7__cxx1112basic_stringIcSt11char_traitsIcESaIcEED1Ev(ptr noundef nonnull align 8 dereferenceable(32) %9) #3
  br label %67

43:                                               ; preds = %22
  br label %44

44:                                               ; preds = %43
  br label %45

45:                                               ; preds = %44
  %46 = getelementptr inbounds nuw %class.anon, ptr %18, i32 0, i32 1
  %47 = load ptr, ptr %46, align 8
  %48 = call noundef nonnull align 4 dereferenceable(4) ptr @_ZNK10open_spiel10SpanTensor2atEi(ptr noundef nonnull align 8 dereferenceable(72) %47, i32 noundef 1)
  %49 = load float, ptr %48, align 4
  store float %49, ptr %13, align 4
  %50 = load i8, ptr %6, align 1
  %51 = trunc i8 %50 to i1
  %52 = zext i1 %51 to i8
  store i8 %52, ptr %14, align 1
  %53 = load float, ptr %13, align 4
  %54 = load i8, ptr %14, align 1
  %55 = trunc i8 %54 to i1
  %56 = zext i1 %55 to i32
  %57 = sitofp i32 %56 to float
  %58 = fcmp oeq float %53, %57
  br i1 %58, label %65, label %59

59:                                               ; preds = %45
  store i32 85, ptr %16, align 4
  call void @_ZN10open_spiel8internal11SpielStrCatIJRA131_KcRA2_S2_iS6_RA35_S2_RA25_S2_RA4_S2_RfRA13_S2_RbEEENSt7__cxx1112basic_stringIcSt11char_traitsIcESaIcEEEDpOT_(ptr dead_on_unwind writable sret(%"class.std::__cxx11::basic_string") align 8 %15, ptr noundef nonnull align 1 dereferenceable(131) @.str.6, ptr noundef nonnull align 1 dereferenceable(2) @.str.7, ptr noundef nonnull align 4 dereferenceable(4) %16, ptr noundef nonnull align 1 dereferenceable(2) @.str.8, ptr noundef nonnull align 1 dereferenceable(35) @.str.58, ptr noundef nonnull align 1 dereferenceable(25) @.str.59, ptr noundef nonnull align 1 dereferenceable(4) @.str.11, ptr noundef nonnull align 4 dereferenceable(4) %13, ptr noundef nonnull align 1 dereferenceable(13) @.str.60, ptr noundef nonnull align 1 dereferenceable(1) %14)
  invoke void @_ZN10open_spiel15SpielFatalErrorERKNSt7__cxx1112basic_stringIcSt11char_traitsIcESaIcEEE(ptr noundef nonnull align 8 dereferenceable(32) %15) #15
          to label %60 unwind label %61

60:                                               ; preds = %59
  unreachable

61:                                               ; preds = %59
  %62 = landingpad { ptr, i32 }
          cleanup
  %63 = extractvalue { ptr, i32 } %62, 0
  store ptr %63, ptr %11, align 8
  %64 = extractvalue { ptr, i32 } %62, 1
  store i32 %64, ptr %12, align 4
  call void @_ZNSt7__cxx1112basic_stringIcSt11char_traitsIcESaIcEED1Ev(ptr noundef nonnull align 8 dereferenceable(32) %15) #3
  br label %67

65:                                               ; preds = %45
  br label %66

66:                                               ; preds = %65
  ret void

67:                                               ; preds = %61, %39
  %68 = load ptr, ptr %11, align 8
  %69 = load i32, ptr %12, align 4
  %70 = insertvalue { ptr, i32 } poison, ptr %68, 0
  %71 = insertvalue { ptr, i32 } %70, i32 %69, 1
  resume { ptr, i32 } %71
}