; Function Attrs: mustprogress norecurse uwtable
define internal fastcc void @"_ZZN10open_spiel3rbc12_GLOBAL__N_120TestIllegalMovesFlagEvENK3$_0clERKNS_5StateEb"(ptr nonnull %.0.val, ptr readonly captures(none) %.8.val, ptr noundef nonnull align 8 dereferenceable(60) %0, i1 noundef zeroext %1) unnamed_addr #5 align 2 personality ptr @__gxx_personality_v0 {
  %3 = alloca float, align 4
  %4 = alloca i8, align 1
  %5 = alloca %"class.std::__cxx11::basic_string", align 8
  %6 = alloca i32, align 4
  %7 = alloca float, align 4
  %8 = alloca i8, align 1
  %9 = alloca %"class.std::__cxx11::basic_string", align 8
  %10 = alloca i32, align 4
  tail call void @_ZN10open_spiel11Observation7SetFromERKNS_5StateEi(ptr noundef nonnull align 8 dereferenceable(64) %.0.val, ptr noundef nonnull align 8 dereferenceable(60) %0, i32 noundef 0)
  %11 = getelementptr inbounds nuw i8, ptr %.8.val, i64 64
  %12 = load i64, ptr %11, align 8
  %.not = icmp eq i64 %12, 0
  br i1 %.not, label %13, label %_ZNK10open_spiel10SpanTensor2atEi.exit

13:                                               ; preds = %2
  tail call void @llvm.trap()
  unreachable

_ZNK10open_spiel10SpanTensor2atEi.exit:           ; preds = %2
  %14 = getelementptr inbounds nuw i8, ptr %.8.val, i64 56
  %15 = load ptr, ptr %14, align 8
  %16 = load float, ptr %15, align 4
  store float %16, ptr %3, align 4
  %17 = xor i1 %1, true
  %18 = zext i1 %17 to i8
  store i8 %18, ptr %4, align 1
  %19 = uitofp i1 %17 to float
  %20 = fcmp oeq float %16, %19
  br i1 %20, label %25, label %21

21:                                               ; preds = %_ZNK10open_spiel10SpanTensor2atEi.exit
  store i32 84, ptr %6, align 4
  call void @_ZN10open_spiel8internal11SpielStrCatIJRA131_KcRA2_S2_iS6_RA36_S2_RA25_S2_RA4_S2_RfRA14_S2_RbEEENSt7__cxx1112basic_stringIcSt11char_traitsIcESaIcEEEDpOT_(ptr dead_on_unwind nonnull writable sret(%"class.std::__cxx11::basic_string") align 8 %5, ptr noundef nonnull align 1 dereferenceable(131) @.str.6, ptr noundef nonnull align 1 dereferenceable(2) @.str.7, ptr noundef nonnull align 4 dereferenceable(4) %6, ptr noundef nonnull align 1 dereferenceable(2) @.str.8, ptr noundef nonnull align 1 dereferenceable(36) @.str.55, ptr noundef nonnull align 1 dereferenceable(25) @.str.56, ptr noundef nonnull align 1 dereferenceable(4) @.str.11, ptr noundef nonnull align 4 dereferenceable(4) %3, ptr noundef nonnull align 1 dereferenceable(14) @.str.57, ptr noundef nonnull align 1 dereferenceable(1) %4)
  invoke void @_ZN10open_spiel15SpielFatalErrorERKNSt7__cxx1112basic_stringIcSt11char_traitsIcESaIcEEE(ptr noundef nonnull align 8 dereferenceable(32) %5) #23
          to label %22 unwind label %23

22:                                               ; preds = %21
  unreachable

23:                                               ; preds = %21
  %24 = landingpad { ptr, i32 }
          cleanup
  br label %37

25:                                               ; preds = %_ZNK10open_spiel10SpanTensor2atEi.exit
  %.not1 = icmp eq i64 %12, 1
  br i1 %.not1, label %26, label %_ZNK10open_spiel10SpanTensor2atEi.exit7

26:                                               ; preds = %25
  tail call void @llvm.trap()
  unreachable

_ZNK10open_spiel10SpanTensor2atEi.exit7:          ; preds = %25
  %27 = zext i1 %1 to i8
  %28 = getelementptr inbounds nuw i8, ptr %15, i64 4
  %29 = load float, ptr %28, align 4
  store float %29, ptr %7, align 4
  store i8 %27, ptr %8, align 1
  %30 = uitofp i1 %1 to float
  %31 = fcmp oeq float %29, %30
  br i1 %31, label %36, label %32

32:                                               ; preds = %_ZNK10open_spiel10SpanTensor2atEi.exit7
  store i32 85, ptr %10, align 4
  call void @_ZN10open_spiel8internal11SpielStrCatIJRA131_KcRA2_S2_iS6_RA35_S2_RA25_S2_RA4_S2_RfRA13_S2_RbEEENSt7__cxx1112basic_stringIcSt11char_traitsIcESaIcEEEDpOT_(ptr dead_on_unwind nonnull writable sret(%"class.std::__cxx11::basic_string") align 8 %9, ptr noundef nonnull align 1 dereferenceable(131) @.str.6, ptr noundef nonnull align 1 dereferenceable(2) @.str.7, ptr noundef nonnull align 4 dereferenceable(4) %10, ptr noundef nonnull align 1 dereferenceable(2) @.str.8, ptr noundef nonnull align 1 dereferenceable(35) @.str.58, ptr noundef nonnull align 1 dereferenceable(25) @.str.59, ptr noundef nonnull align 1 dereferenceable(4) @.str.11, ptr noundef nonnull align 4 dereferenceable(4) %7, ptr noundef nonnull align 1 dereferenceable(13) @.str.60, ptr noundef nonnull align 1 dereferenceable(1) %8)
  invoke void @_ZN10open_spiel15SpielFatalErrorERKNSt7__cxx1112basic_stringIcSt11char_traitsIcESaIcEEE(ptr noundef nonnull align 8 dereferenceable(32) %9) #23
          to label %33 unwind label %34

33:                                               ; preds = %32
  unreachable

34:                                               ; preds = %32
  %35 = landingpad { ptr, i32 }
          cleanup
  br label %37

36:                                               ; preds = %_ZNK10open_spiel10SpanTensor2atEi.exit7
  ret void

37:                                               ; preds = %34, %23
  %.sink = phi ptr [ %9, %34 ], [ %5, %23 ]
  %.pn = phi { ptr, i32 } [ %35, %34 ], [ %24, %23 ]
  call void @_ZNSt7__cxx1112basic_stringIcSt11char_traitsIcESaIcEED1Ev(ptr noundef nonnull align 8 dereferenceable(32) %.sink) #21
  resume { ptr, i32 } %.pn
}